; Function Attrs: mustprogress nounwind uwtable
define hidden void @_ZN4cvc58internal6theory24InferenceManagerBuffered29clearPendingPhaseRequirementsEv(ptr noundef nonnull align 8 dereferenceable(337) %0) local_unnamed_addr #6 align 2 personality ptr @__gxx_personality_v0 {
  %2 = getelementptr inbounds nuw i8, ptr %0, i64 288
  %3 = getelementptr inbounds nuw i8, ptr %0, i64 304
  %4 = load ptr, ptr %3, align 8, !tbaa !14
  invoke void @_ZNSt8_Rb_treeIN4cvc58internal12NodeTemplateILb1EEESt4pairIKS3_bESt10_Select1stIS6_ESt4lessIS3_ESaIS6_EE8_M_eraseEPSt13_Rb_tree_nodeIS6_E(ptr noundef nonnull align 8 dereferenceable(48) %2, ptr noundef %4)
          to label %_ZNSt3mapIN4cvc58internal12NodeTemplateILb1EEEbSt4lessIS3_ESaISt4pairIKS3_bEEE5clearEv.exit unwind label %5

5:                                                ; preds = %1
  %6 = landingpad { ptr, i32 }
          catch ptr null
  %7 = extractvalue { ptr, i32 } %6, 0
  tail call void @__clang_call_terminate(ptr %7) #19
  unreachable

_ZNSt3mapIN4cvc58internal12NodeTemplateILb1EEEbSt4lessIS3_ESaISt4pairIKS3_bEEE5clearEv.exit: ; preds = %1
  %8 = getelementptr inbounds nuw i8, ptr %0, i64 296
  store ptr null, ptr %3, align 8, !tbaa !14
  %9 = getelementptr inbounds nuw i8, ptr %0, i64 312
  store ptr %8, ptr %9, align 8, !tbaa !15
  %10 = getelementptr inbounds nuw i8, ptr %0, i64 320
  store ptr %8, ptr %10, align 8, !tbaa !16
  %11 = getelementptr inbounds nuw i8, ptr %0, i64 328
  store i64 0, ptr %11, align 8, !tbaa !17
  ret void
}